target datalayout = "e-m:e-p270:32:32-p271:32:32-p272:64:64-i64:64-i128:128-f80:128-n8:16:32:64-S128"
target triple = "x86_64-pc-linux-gnu"

%struct.nameData = type { [64 x i8] }
%struct.FormData_pg_constraint = type { i32, %struct.nameData, i32, i8, i8, i8, i8, i8, i32, i32, i32, i32, i32, i8, i8, i8, i8, i16, i8, i8 }
%struct.HeapTupleData = type { i32, %struct.ItemPointerData, i32, ptr }
%struct.ItemPointerData = type { %struct.BlockIdData, i16 }
%struct.BlockIdData = type { i16, i16 }
%struct.HeapTupleHeaderData = type { %union.anon, %struct.ItemPointerData, i16, i16, i8, [0 x i8] }
%union.anon = type { %struct.HeapTupleFields }
%struct.HeapTupleFields = type { i32, i32, %union.anon.0 }
%union.anon.0 = type { i32 }

@.str.2 = private unnamed_addr constant [16 x i8] c"pg_constraint.c\00", align 1
@.str.3 = private unnamed_addr constant [77 x i8] c"cannot change NO INHERIT status of NOT NULL constraint \22%s\22 on relation \22%s\22\00", align 1
@__func__.AdjustNotNullInheritance = private unnamed_addr constant [25 x i8] c"AdjustNotNullInheritance\00", align 1
@.str.4 = private unnamed_addr constant [29 x i8] c"too many inheritance parents\00", align 1

; Function Attrs: inlinehint nounwind uwtable
define internal zeroext i1 @pg_add_s16_overflow(i16 noundef signext %0, i16 noundef signext %1, ptr noundef %2) #3 {
  %4 = alloca i16, align 2
  %5 = alloca i16, align 2
  %6 = alloca ptr, align 8
  store i16 %0, ptr %4, align 2
  store i16 %1, ptr %5, align 2
  store ptr %2, ptr %6, align 8
  %7 = load i16, ptr %4, align 2
  %8 = load i16, ptr %5, align 2
  %9 = load ptr, ptr %6, align 8
  %10 = call { i16, i1 } @llvm.sadd.with.overflow.i16(i16 %7, i16 %8)
  %11 = extractvalue { i16, i1 } %10, 1
  %12 = extractvalue { i16, i1 } %10, 0
  store i16 %12, ptr %9, align 2
  ret i1 %11
}

; Function Attrs: inlinehint nounwind uwtable
define internal ptr @GETSTRUCT(ptr noundef %0) #3 {
  %2 = alloca ptr, align 8
  store ptr %0, ptr %2, align 8
  %3 = load ptr, ptr %2, align 8
  %4 = getelementptr inbounds nuw %struct.HeapTupleData, ptr %3, i32 0, i32 3
  %5 = load ptr, ptr %4, align 8
  %6 = load ptr, ptr %2, align 8
  %7 = getelementptr inbounds nuw %struct.HeapTupleData, ptr %6, i32 0, i32 3
  %8 = load ptr, ptr %7, align 8
  %9 = getelementptr inbounds nuw %struct.HeapTupleHeaderData, ptr %8, i32 0, i32 4
  %10 = load i8, ptr %9, align 2
  %11 = zext i8 %10 to i32
  %12 = sext i32 %11 to i64
  %13 = getelementptr inbounds i8, ptr %5, i64 %12
  ret ptr %13
}

; Function Attrs: nounwind uwtable
define dso_local zeroext i1 @AdjustNotNullInheritance(i32 noundef %0, i16 noundef signext %1, i1 noundef zeroext %2, i1 noundef zeroext %3) #0 {
  %5 = alloca i1, align 1
  %6 = alloca i32, align 4
  %7 = alloca i16, align 2
  %8 = alloca i8, align 1
  %9 = alloca i8, align 1
  %10 = alloca ptr, align 8
  %11 = alloca ptr, align 8
  %12 = alloca ptr, align 8
  %13 = alloca i8, align 1
  %14 = alloca i32, align 4
  store i32 %0, ptr %6, align 4
  store i16 %1, ptr %7, align 2
  %15 = zext i1 %2 to i8
  store i8 %15, ptr %8, align 1
  %16 = zext i1 %3 to i8
  store i8 %16, ptr %9, align 1
  call void @llvm.lifetime.start.p0(i64 8, ptr %10) #9
  %17 = load i32, ptr %6, align 4
  %18 = load i16, ptr %7, align 2
  %19 = call ptr @findNotNullConstraintAttnum(i32 noundef %17, i16 noundef signext %18)
  store ptr %19, ptr %10, align 8
  %20 = load ptr, ptr %10, align 8
  %21 = icmp ne ptr %20, null
  br i1 %21, label %22, label %95

22:                                               ; preds = %4
  call void @llvm.lifetime.start.p0(i64 8, ptr %11) #9
  call void @llvm.lifetime.start.p0(i64 8, ptr %12) #9
  call void @llvm.lifetime.start.p0(i64 1, ptr %13) #9
  store i8 0, ptr %13, align 1
  %23 = call ptr @table_open(i32 noundef 2606, i32 noundef 3)
  store ptr %23, ptr %11, align 8
  %24 = load ptr, ptr %10, align 8
  %25 = call ptr @GETSTRUCT(ptr noundef %24)
  store ptr %25, ptr %12, align 8
  %26 = load i8, ptr %9, align 1, !range !13, !noundef !14
  %27 = trunc i8 %26 to i1
  %28 = zext i1 %27 to i32
  %29 = load ptr, ptr %12, align 8
  %30 = getelementptr inbounds nuw %struct.FormData_pg_constraint, ptr %29, i32 0, i32 18
  %31 = load i8, ptr %30, align 2, !range !13, !noundef !14
  %32 = trunc i8 %31 to i1
  %33 = zext i1 %32 to i32
  %34 = icmp ne i32 %28, %33
  br i1 %34, label %35, label %53

35:                                               ; preds = %22
  br label %36

36:                                               ; preds = %35
  br i1 true, label %37, label %39

37:                                               ; preds = %36
  %38 = call zeroext i1 @errstart_cold(i32 noundef 21, ptr noundef null) #11
  br i1 %38, label %41, label %50

39:                                               ; preds = %36
  %40 = call zeroext i1 @errstart(i32 noundef 21, ptr noundef null)
  br i1 %40, label %41, label %50

41:                                               ; preds = %39, %37
  %42 = call i32 @errcode(i32 noundef 325)
  %43 = load ptr, ptr %12, align 8
  %44 = getelementptr inbounds nuw %struct.FormData_pg_constraint, ptr %43, i32 0, i32 1
  %45 = getelementptr inbounds nuw %struct.nameData, ptr %44, i32 0, i32 0
  %46 = getelementptr inbounds [64 x i8], ptr %45, i64 0, i64 0
  %47 = load i32, ptr %6, align 4
  %48 = call ptr @get_rel_name(i32 noundef %47)
  %49 = call i32 (ptr, ...) @errmsg(ptr noundef @.str.3, ptr noundef %46, ptr noundef %48)
  call void @errfinish(ptr noundef @.str.2, i32 noundef 754, ptr noundef @__func__.AdjustNotNullInheritance)
  br label %50

50:                                               ; preds = %41, %39, %37
  unreachable

51:                                               ; No predecessors!
  br label %52

52:                                               ; preds = %51
  br label %53

53:                                               ; preds = %52, %22
  %54 = load i8, ptr %8, align 1, !range !13, !noundef !14
  %55 = trunc i8 %54 to i1
  br i1 %55, label %76, label %56

56:                                               ; preds = %53
  %57 = load ptr, ptr %12, align 8
  %58 = getelementptr inbounds nuw %struct.FormData_pg_constraint, ptr %57, i32 0, i32 17
  %59 = load i16, ptr %58, align 4
  %60 = load ptr, ptr %12, align 8
  %61 = getelementptr inbounds nuw %struct.FormData_pg_constraint, ptr %60, i32 0, i32 17
  %62 = call zeroext i1 @pg_add_s16_overflow(i16 noundef signext %59, i16 noundef signext 1, ptr noundef %61)
  br i1 %62, label %63, label %75

63:                                               ; preds = %56
  br label %64

64:                                               ; preds = %63
  br i1 true, label %65, label %67

65:                                               ; preds = %64
  %66 = call zeroext i1 @errstart_cold(i32 noundef 21, ptr noundef null) #11
  br i1 %66, label %69, label %72

67:                                               ; preds = %64
  %68 = call zeroext i1 @errstart(i32 noundef 21, ptr noundef null)
  br i1 %68, label %69, label %72

69:                                               ; preds = %67, %65
  %70 = call i32 @errcode(i32 noundef 261)
  %71 = call i32 (ptr, ...) @errmsg(ptr noundef @.str.4)
  call void @errfinish(ptr noundef @.str.2, i32 noundef 762, ptr noundef @__func__.AdjustNotNullInheritance)
  br label %72

72:                                               ; preds = %69, %67, %65
  unreachable

73:                                               ; No predecessors!
  br label %74

74:                                               ; preds = %73
  br label %75

75:                                               ; preds = %74, %56
  store i8 1, ptr %13, align 1
  br label %85

76:                                               ; preds = %53
  %77 = load ptr, ptr %12, align 8
  %78 = getelementptr inbounds nuw %struct.FormData_pg_constraint, ptr %77, i32 0, i32 16
  %79 = load i8, ptr %78, align 1, !range !13, !noundef !14
  %80 = trunc i8 %79 to i1
  br i1 %80, label %84, label %81

81:                                               ; preds = %76
  %82 = load ptr, ptr %12, align 8
  %83 = getelementptr inbounds nuw %struct.FormData_pg_constraint, ptr %82, i32 0, i32 16
  store i8 1, ptr %83, align 1
  store i8 1, ptr %13, align 1
  br label %84

84:                                               ; preds = %81, %76
  br label %85

85:                                               ; preds = %84, %75
  %86 = load i8, ptr %13, align 1, !range !13, !noundef !14
  %87 = trunc i8 %86 to i1
  br i1 %87, label %88, label %93

88:                                               ; preds = %85
  %89 = load ptr, ptr %11, align 8
  %90 = load ptr, ptr %10, align 8
  %91 = getelementptr inbounds nuw %struct.HeapTupleData, ptr %90, i32 0, i32 1
  %92 = load ptr, ptr %10, align 8
  call void @CatalogTupleUpdate(ptr noundef %89, ptr noundef %91, ptr noundef %92)
  br label %93

93:                                               ; preds = %88, %85
  %94 = load ptr, ptr %11, align 8
  call void @table_close(ptr noundef %94, i32 noundef 3)
  store i1 true, ptr %5, align 1
  store i32 1, ptr %14, align 4
  call void @llvm.lifetime.end.p0(i64 1, ptr %13) #9
  call void @llvm.lifetime.end.p0(i64 8, ptr %12) #9
  call void @llvm.lifetime.end.p0(i64 8, ptr %11) #9
  br label %96

95:                                               ; preds = %4
  store i1 false, ptr %5, align 1
  store i32 1, ptr %14, align 4
  br label %96

96:                                               ; preds = %95, %93
  call void @llvm.lifetime.end.p0(i64 8, ptr %10) #9
  %97 = load i1, ptr %5, align 1
  ret i1 %97
}