; Function Attrs: nounwind uwtable
define dso_local noundef zeroext i1 @AdjustNotNullInheritance(i32 noundef %0, i16 noundef signext %1, i1 noundef zeroext %2, i1 noundef zeroext %3) local_unnamed_addr #0 {
  %5 = tail call ptr @findNotNullConstraintAttnum(i32 noundef %0, i16 noundef signext %1)
  %.not = icmp ne ptr %5, null
  br i1 %.not, label %6, label %40

6:                                                ; preds = %4
  %7 = tail call ptr @table_open(i32 noundef 2606, i32 noundef 3) #12
  %8 = getelementptr i8, ptr %5, i64 16
  %.val = load ptr, ptr %8, align 8
  %9 = getelementptr inbounds nuw i8, ptr %.val, i64 22
  %10 = load i8, ptr %9, align 2
  %11 = zext i8 %10 to i64
  %12 = getelementptr inbounds nuw i8, ptr %.val, i64 %11
  %13 = getelementptr inbounds nuw i8, ptr %12, i64 106
  %14 = load i8, ptr %13, align 2, !range !16, !noundef !17
  %15 = zext i1 %3 to i8
  %.not20 = icmp eq i8 %14, %15
  br i1 %.not20, label %22, label %16

16:                                               ; preds = %6
  %17 = tail call zeroext i1 @errstart_cold(i32 noundef 21, ptr noundef null) #14
  tail call void @llvm.assume(i1 %17)
  %18 = tail call i32 @errcode(i32 noundef 325) #12
  %19 = getelementptr inbounds nuw i8, ptr %12, i64 4
  %20 = tail call ptr @get_rel_name(i32 noundef %0) #12
  %21 = tail call i32 (ptr, ...) @errmsg(ptr noundef nonnull @.str.3, ptr noundef nonnull %19, ptr noundef %20) #12
  tail call void @errfinish(ptr noundef nonnull @.str.2, i32 noundef 754, ptr noundef nonnull @__func__.AdjustNotNullInheritance) #12
  unreachable

22:                                               ; preds = %6
  br i1 %2, label %33, label %23

23:                                               ; preds = %22
  %24 = getelementptr inbounds nuw i8, ptr %12, i64 104
  %25 = load i16, ptr %24, align 4
  %26 = tail call { i16, i1 } @llvm.sadd.with.overflow.i16(i16 %25, i16 1)
  %27 = extractvalue { i16, i1 } %26, 1
  %28 = extractvalue { i16, i1 } %26, 0
  store i16 %28, ptr %24, align 2
  br i1 %27, label %29, label %38

29:                                               ; preds = %23
  %30 = tail call zeroext i1 @errstart_cold(i32 noundef 21, ptr noundef null) #14
  tail call void @llvm.assume(i1 %30)
  %31 = tail call i32 @errcode(i32 noundef 261) #12
  %32 = tail call i32 (ptr, ...) @errmsg(ptr noundef nonnull @.str.4) #12
  tail call void @errfinish(ptr noundef nonnull @.str.2, i32 noundef 762, ptr noundef nonnull @__func__.AdjustNotNullInheritance) #12
  unreachable

33:                                               ; preds = %22
  %34 = getelementptr inbounds nuw i8, ptr %12, i64 103
  %35 = load i8, ptr %34, align 1, !range !16, !noundef !17
  %36 = trunc nuw i8 %35 to i1
  br i1 %36, label %.critedge, label %37

37:                                               ; preds = %33
  store i8 1, ptr %34, align 1
  br label %38

38:                                               ; preds = %37, %23
  %39 = getelementptr inbounds nuw i8, ptr %5, i64 4
  tail call void @CatalogTupleUpdate(ptr noundef %7, ptr noundef nonnull %39, ptr noundef nonnull %5) #12
  br label %.critedge

.critedge:                                        ; preds = %33, %38
  tail call void @table_close(ptr noundef %7, i32 noundef 3) #12
  br label %40

40:                                               ; preds = %4, %.critedge
  ret i1 %.not
}